; Function Attrs: mustprogress nounwind uwtable
define dso_local void @_ZN4node2fs9FSReqBaseD2Ev(ptr noundef nonnull align 8 dereferenceable(648) %this) unnamed_addr #3 align 2 {
entry:
  store ptr getelementptr inbounds ({ [27 x ptr], [6 x ptr] }, ptr @_ZTVN4node2fs9FSReqBaseE, i64 0, i32 0, i64 2), ptr %this, align 8
  %add.ptr = getelementptr inbounds i8, ptr %this, i64 56
  store ptr getelementptr inbounds ({ [27 x ptr], [6 x ptr] }, ptr @_ZTVN4node2fs9FSReqBaseE, i64 0, i32 1, i64 2), ptr %add.ptr, align 8
  %buf_.i.i.i = getelementptr inbounds i8, ptr %this, i64 576
  %0 = load ptr, ptr %buf_.i.i.i, align 8
  %cmp.i.i.i = icmp ne ptr %0, null
  %buf_st_.i.i = getelementptr inbounds i8, ptr %this, i64 584
  %cmp.i.i = icmp ne ptr %0, %buf_st_.i.i
  %1 = select i1 %cmp.i.i.i, i1 %cmp.i.i, i1 false
  br i1 %1, label %if.then.i, label %_ZN4node16MaybeStackBufferIcLm64EED2Ev.exit

if.then.i:                                        ; preds = %entry
  tail call void @free(ptr noundef nonnull %0) #30
  br label %_ZN4node16MaybeStackBufferIcLm64EED2Ev.exit

_ZN4node16MaybeStackBufferIcLm64EED2Ev.exit:      ; preds = %entry, %if.then.i
  %binding_data_ = getelementptr inbounds i8, ptr %this, i64 552
  %2 = load ptr, ptr %binding_data_, align 8
  %cmp.not.i = icmp eq ptr %2, null
  br i1 %cmp.not.i, label %_ZN4node17BaseObjectPtrImplINS_2fs11BindingDataELb0EED2Ev.exit, label %if.then.i1

if.then.i1:                                       ; preds = %_ZN4node16MaybeStackBufferIcLm64EED2Ev.exit
  tail call void @_ZN4node10BaseObject17decrease_refcountEv(ptr noundef nonnull align 8 dereferenceable(32) %2) #30
  br label %_ZN4node17BaseObjectPtrImplINS_2fs11BindingDataELb0EED2Ev.exit

_ZN4node17BaseObjectPtrImplINS_2fs11BindingDataELb0EED2Ev.exit: ; preds = %_ZN4node16MaybeStackBufferIcLm64EED2Ev.exit, %if.then.i1
  %continuation_data_ = getelementptr inbounds i8, ptr %this, i64 528
  %3 = load ptr, ptr %continuation_data_, align 8
  %cmp.not.i2 = icmp eq ptr %3, null
  br i1 %cmp.not.i2, label %_ZNSt10unique_ptrIN4node2fs18FSContinuationDataESt14default_deleteIS2_EED2Ev.exit, label %_ZNKSt14default_deleteIN4node2fs18FSContinuationDataEEclEPS2_.exit.i

_ZNKSt14default_deleteIN4node2fs18FSContinuationDataEEclEPS2_.exit.i: ; preds = %_ZN4node17BaseObjectPtrImplINS_2fs11BindingDataELb0EED2Ev.exit
  %vtable.i.i = load ptr, ptr %3, align 8
  %vfn.i.i = getelementptr inbounds i8, ptr %vtable.i.i, i64 8
  %4 = load ptr, ptr %vfn.i.i, align 8
  tail call void %4(ptr noundef nonnull align 8 dereferenceable(88) %3) #30
  br label %_ZNSt10unique_ptrIN4node2fs18FSContinuationDataESt14default_deleteIS2_EED2Ev.exit

_ZNSt10unique_ptrIN4node2fs18FSContinuationDataESt14default_deleteIS2_EED2Ev.exit: ; preds = %_ZN4node17BaseObjectPtrImplINS_2fs11BindingDataELb0EED2Ev.exit, %_ZNKSt14default_deleteIN4node2fs18FSContinuationDataEEclEPS2_.exit.i
  store ptr null, ptr %continuation_data_, align 8
  store ptr getelementptr inbounds ({ [6 x ptr] }, ptr @_ZTVN4node11ReqWrapBaseE, i64 0, i32 0, i64 2), ptr %add.ptr, align 8
  %req_wrap_queue_.i.i = getelementptr inbounds i8, ptr %this, i64 64
  %next_.i.i.i.i = getelementptr inbounds i8, ptr %this, i64 72
  %5 = load ptr, ptr %next_.i.i.i.i, align 8
  %6 = load ptr, ptr %req_wrap_queue_.i.i, align 8
  %next_2.i.i.i.i = getelementptr inbounds i8, ptr %6, i64 8
  store ptr %5, ptr %next_2.i.i.i.i, align 8
  %7 = load ptr, ptr %req_wrap_queue_.i.i, align 8
  store ptr %7, ptr %5, align 8
  store ptr %req_wrap_queue_.i.i, ptr %req_wrap_queue_.i.i, align 8
  store ptr %req_wrap_queue_.i.i, ptr %next_.i.i.i.i, align 8
  tail call void @_ZN4node9AsyncWrapD2Ev(ptr noundef nonnull align 8 dereferenceable(56) %this) #30
  ret void
}